Certificate:
    Data:
        Version: 3 (0x2)
        Serial Number: 1 (0x1)
    Signature Algorithm: sha256WithRSAEncryption
        Issuer: C=EC, ST=Guayas, L=Guayaquil, O=CarmitaProducts, OU=Sistemas, CN=gesrvlinuxc715/name=server/emailAddress=iroman@carmitaproducts.com.ec
        Validity
            Not Before: Jan 24 19:09:49 2016 GMT
            Not After : Jan 21 19:09:49 2026 GMT
        Subject: C=EC, ST=Guayas, L=Guayaquil, O=CarmitaProducts, OU=Sistemas, CN=gesrvlinuxc715/name=server/emailAddress=iroman@carmitaproducts.com.ec
        Subject Public Key Info:
            Public Key Algorithm: rsaEncryption
                Public-Key: (2048 bit)
                Modulus:
                    00:dd:8b:32:06:6f:e8:a8:ee:d1:b7:be:5f:28:bf:
                    bf:c0:5f:57:22:0e:a1:eb:42:76:46:57:80:39:5e:
                    05:d4:20:85:c7:ce:9a:b4:e6:b3:8c:4e:64:46:26:
                    69:04:7a:89:a4:a8:79:36:54:83:37:60:46:77:bf:
                    e2:56:b3:d5:df:7c:61:90:c2:a8:86:cd:08:fc:8c:
                    7d:4c:e2:60:01:6e:9e:0f:c7:9e:86:57:96:b4:12:
                    f0:65:cb:8e:c6:9d:5e:7a:b9:c3:83:85:43:44:23:
                    80:33:b6:3e:2e:1b:c0:be:4c:72:7e:a8:06:a5:f3:
                    ee:30:b0:e6:07:fc:ee:02:c7:d4:ad:6b:65:96:e3:
                    ed:d5:8e:c1:71:4b:44:73:39:d7:22:0f:68:22:40:
                    ae:a6:2b:de:31:5e:c9:9f:16:a0:c6:57:ed:e7:5d:
                    55:72:85:2c:0b:24:b4:8d:14:e1:b9:4a:be:e9:04:
                    55:73:21:65:da:44:1c:71:36:d0:df:d2:4f:5e:c4:
                    0c:7c:b3:1c:f5:aa:ec:a7:b8:eb:85:d9:76:af:44:
                    71:af:b3:cb:c0:d9:7b:5c:d5:de:af:54:b0:6c:18:
                    51:74:b9:09:7b:ff:c5:9f:8d:d4:44:1f:24:20:15:
                    e9:a2:15:c9:fa:e1:b2:da:52:f4:04:c7:02:60:2e:
                    11:e7
                Exponent: 65537 (0x10001)
        X509v3 extensions:
            X509v3 Basic Constraints: 
                CA:FALSE
            Netscape Cert Type: 
                SSL Server
            Netscape Comment: 
                Easy-RSA Generated Server Certificate
            X509v3 Subject Key Identifier: 
                B6:81:21:DB:D2:DC:D2:6B:E6:A9:37:81:3E:0D:69:75:A8:43:C9:70
            X509v3 Authority Key Identifier: 
                keyid:D9:C6:74:2A:8D:F6:DB:E5:7D:A3:3F:D1:D1:7D:B5:89:32:96:79:B1
                DirName:/C=EC/ST=Guayas/L=Guayaquil/O=CarmitaProducts/OU=Sistemas/CN=gesrvlinuxc715/name=server/emailAddress=iroman@carmitaproducts.com.ec
                serial:ED:78:F2:6C:E3:35:37:BC

            X509v3 Extended Key Usage: 
                TLS Web Server Authentication
            X509v3 Key Usage: 
                Digital Signature, Key Encipherment
    Signature Algorithm: sha256WithRSAEncryption
         40:81:49:7d:31:2c:9f:9c:98:f4:41:c7:64:17:16:df:81:26:
         77:a4:12:8f:aa:c8:92:3a:f4:5c:18:13:ba:ee:7c:6c:a7:df:
         5f:e7:4f:05:e1:39:6c:26:98:7d:ea:49:3a:b0:02:c9:f9:fa:
         43:55:a7:42:d7:1e:dc:ad:a5:b8:34:f0:d5:ee:a7:60:8e:70:
         4a:6e:35:d7:1e:85:89:06:41:77:10:1d:ae:15:6e:d2:9b:e6:
         c1:38:92:db:fd:cb:14:67:ce:b0:8d:98:53:86:7c:bb:ff:08:
         48:c5:a1:de:7e:2a:dc:7e:67:25:07:65:11:6d:31:b3:25:ff:
         da:81:18:b9:77:cb:9e:e3:b6:e6:48:5e:bd:0f:87:51:cb:45:
         e4:0a:bf:7c:fd:a2:4c:ae:e5:60:16:2e:6a:93:ce:9e:94:d7:
         1e:98:eb:f2:9b:90:4a:bd:cf:45:c0:fb:86:64:c3:cc:2e:03:
         81:8e:a0:ef:f3:37:0a:22:10:91:a1:06:20:d4:db:b6:6b:66:
         f2:83:b2:0d:76:58:c5:00:ce:81:49:90:a2:c0:5a:40:6a:68:
         58:83:06:fe:08:7d:4a:df:0d:c2:da:e8:20:93:e3:86:e6:7a:
         5e:2d:14:9a:a3:30:ef:cf:30:98:ee:e0:01:2b:06:cf:70:99:
         c0:51:51:47
-----BEGIN CERTIFICATE-----
MIIFdTCCBF2gAwIBAgIBATANBgkqhkiG9w0BAQsFADCBtzELMAkGA1UEBhMCRUMx
DzANBgNVBAgTBkd1YXlhczESMBAGA1UEBxMJR3VheWFxdWlsMRgwFgYDVQQKEw9D
YXJtaXRhUHJvZHVjdHMxETAPBgNVBAsTCFNpc3RlbWFzMRcwFQYDVQQDEw5nZXNy
dmxpbnV4YzcxNTEPMA0GA1UEKRMGc2VydmVyMSwwKgYJKoZIhvcNAQkBFh1pcm9t
YW5AY2FybWl0YXByb2R1Y3RzLmNvbS5lYzAeFw0xNjAxMjQxOTA5NDlaFw0yNjAx
MjExOTA5NDlaMIG3MQswCQYDVQQGEwJFQzEPMA0GA1UECBMGR3VheWFzMRIwEAYD
VQQHEwlHdWF5YXF1aWwxGDAWBgNVBAoTD0Nhcm1pdGFQcm9kdWN0czERMA8GA1UE
CxMIU2lzdGVtYXMxFzAVBgNVBAMTDmdlc3J2bGludXhjNzE1MQ8wDQYDVQQpEwZz
ZXJ2ZXIxLDAqBgkqhkiG9w0BCQEWHWlyb21hbkBjYXJtaXRhcHJvZHVjdHMuY29t
LmVjMIIBIjANBgkqhkiG9w0BAQEFAAOCAQ8AMIIBCgKCAQEA3YsyBm/oqO7Rt75f
KL+/wF9XIg6h60J2RleAOV4F1CCFx86atOazjE5kRiZpBHqJpKh5NlSDN2BGd7/i
VrPV33xhkMKohs0I/Ix9TOJgAW6eD8eehleWtBLwZcuOxp1eernDg4VDRCOAM7Y+
LhvAvkxyfqgGpfPuMLDmB/zuAsfUrWtlluPt1Y7BcUtEcznXIg9oIkCupiveMV7J
nxagxlft511VcoUsCyS0jRThuUq+6QRVcyFl2kQccTbQ39JPXsQMfLMc9arsp7jr
hdl2r0Rxr7PLwNl7XNXer1SwbBhRdLkJe//Fn43URB8kIBXpohXJ+uGy2lL0BMcC
YC4R5wIDAQABo4IBiDCCAYQwCQYDVR0TBAIwADARBglghkgBhvhCAQEEBAMCBkAw
NAYJYIZIAYb4QgENBCcWJUVhc3ktUlNBIEdlbmVyYXRlZCBTZXJ2ZXIgQ2VydGlm
aWNhdGUwHQYDVR0OBBYEFLaBIdvS3NJr5qk3gT4NaXWoQ8lwMIHsBgNVHSMEgeQw
geGAFNnGdCqN9tvlfaM/0dF9tYkylnmxoYG9pIG6MIG3MQswCQYDVQQGEwJFQzEP
MA0GA1UECBMGR3VheWFzMRIwEAYDVQQHEwlHdWF5YXF1aWwxGDAWBgNVBAoTD0Nh
cm1pdGFQcm9kdWN0czERMA8GA1UECxMIU2lzdGVtYXMxFzAVBgNVBAMTDmdlc3J2
bGludXhjNzE1MQ8wDQYDVQQpEwZzZXJ2ZXIxLDAqBgkqhkiG9w0BCQEWHWlyb21h
bkBjYXJtaXRhcHJvZHVjdHMuY29tLmVjggkA7XjybOM1N7wwEwYDVR0lBAwwCgYI
KwYBBQUHAwEwCwYDVR0PBAQDAgWgMA0GCSqGSIb3DQEBCwUAA4IBAQBAgUl9MSyf
nJj0QcdkFxbfgSZ3pBKPqsiSOvRcGBO67nxsp99f508F4TlsJph96kk6sALJ+fpD
VadC1x7craW4NPDV7qdgjnBKbjXXHoWJBkF3EB2uFW7Sm+bBOJLb/csUZ86wjZhT
hny7/whIxaHefircfmclB2URbTGzJf/agRi5d8ue47bmSF69D4dRy0XkCr98/aJM
ruVgFi5qk86elNcemOvym5BKvc9FwPuGZMPMLgOBjqDv8zcKIhCRoQYg1Nu2a2by
g7INdljFAM6BSZCiwFpAamhYgwb+CH1K3w3C2uggk+OG5npeLRSaozDvzzCY7uAB
KwbPcJnAUVFH
-----END CERTIFICATE-----
