Certificate:
    Data:
        Version: 3 (0x2)
        Serial Number: 2 (0x2)
    Signature Algorithm: sha256WithRSAEncryption
        Issuer: C=EC, ST=Guayas, L=Guayaquil, O=CarmitaProducts, OU=Sistemas, CN=gesrvlinuxc715/name=server/emailAddress=iroman@carmitaproducts.com.ec
        Validity
            Not Before: Jan 24 19:11:59 2016 GMT
            Not After : Jan 21 19:11:59 2026 GMT
        Subject: C=EC, ST=Guayas, L=Guayaquil, O=CarmitaProducts, OU=Sistemas, CN=gcp_usr01/name=server/emailAddress=iroman@carmitaproducts.com.ec
        Subject Public Key Info:
            Public Key Algorithm: rsaEncryption
                Public-Key: (2048 bit)
                Modulus:
                    00:d1:7c:fa:ac:f6:88:b6:86:a7:5e:b9:2f:01:e2:
                    52:b2:82:2d:b7:6c:fc:69:87:ad:53:45:24:a1:04:
                    c8:f9:2f:d5:b8:7f:48:90:6d:d4:f1:4d:84:8e:2b:
                    1e:f3:35:45:03:fd:21:ab:61:58:53:db:1b:18:96:
                    df:9c:34:d4:ce:66:c1:78:f1:e1:d1:23:2d:cb:a8:
                    a0:60:7b:99:db:24:8a:67:26:c0:66:19:87:39:4c:
                    ab:5d:c8:da:b1:1a:23:69:1d:cd:65:88:5b:e1:2d:
                    f6:45:8d:1f:c3:0d:85:95:c4:80:e0:c2:5e:a1:72:
                    72:c1:4b:91:90:90:fb:8d:0f:e6:03:4a:a4:af:7b:
                    b1:8b:d8:59:82:83:ce:ab:ee:a2:86:c4:95:ed:e1:
                    57:9a:df:06:92:bd:7b:b3:93:4c:1e:f5:5b:3e:30:
                    19:cd:6d:a9:79:ee:2e:36:74:0f:9b:aa:7a:5e:c3:
                    28:2d:25:70:ef:22:8b:ed:c3:47:65:ed:0d:c6:36:
                    c7:9a:76:f3:7b:55:e8:df:f0:cc:56:37:71:9f:16:
                    7c:2d:2a:41:25:a5:7a:36:49:4c:1f:a8:f8:0b:fd:
                    da:e2:19:d7:b4:da:2f:cf:8f:52:20:7c:10:66:52:
                    1e:bb:29:e4:58:1f:2b:f3:f1:ed:ce:ed:4c:bb:ef:
                    cb:4d
                Exponent: 65537 (0x10001)
        X509v3 extensions:
            X509v3 Basic Constraints: 
                CA:FALSE
            Netscape Comment: 
                Easy-RSA Generated Certificate
            X509v3 Subject Key Identifier: 
                9E:1C:2D:5C:38:DD:74:97:09:BE:F4:E4:E0:84:01:12:54:3E:9D:B4
            X509v3 Authority Key Identifier: 
                keyid:D9:C6:74:2A:8D:F6:DB:E5:7D:A3:3F:D1:D1:7D:B5:89:32:96:79:B1
                DirName:/C=EC/ST=Guayas/L=Guayaquil/O=CarmitaProducts/OU=Sistemas/CN=gesrvlinuxc715/name=server/emailAddress=iroman@carmitaproducts.com.ec
                serial:ED:78:F2:6C:E3:35:37:BC

            X509v3 Extended Key Usage: 
                TLS Web Client Authentication
            X509v3 Key Usage: 
                Digital Signature
    Signature Algorithm: sha256WithRSAEncryption
         2b:e3:bf:1e:c0:92:6d:de:0c:1a:ce:59:bb:26:c5:88:35:e6:
         c1:39:18:22:ed:7d:a6:e5:64:0a:8d:38:55:41:43:fd:9a:17:
         b1:e2:7e:2f:dd:aa:b8:96:ca:47:b1:f5:ce:6e:c0:dd:32:b5:
         8c:dc:94:df:dc:42:ca:7e:47:5c:1c:56:bd:42:2e:f9:db:4a:
         9c:17:64:c1:41:94:36:f7:7b:56:05:6a:9d:47:41:f0:49:01:
         03:3f:85:f8:5e:e0:12:9f:00:55:e3:63:1f:f7:e1:9e:1b:2f:
         b3:a7:1f:95:01:fc:fe:3a:02:ae:ac:38:3f:c6:db:39:a0:df:
         e5:35:48:cb:7d:be:da:bc:42:0a:f1:60:a1:67:91:78:0c:bd:
         19:73:7b:40:17:90:24:ad:cd:b3:bf:db:17:88:82:83:30:bc:
         de:cb:52:b0:c5:e3:df:b6:0d:65:1e:36:0a:79:ac:f8:c0:0d:
         d8:a4:62:20:55:e4:a7:57:79:5c:b5:05:a5:01:a9:3d:00:bf:
         45:bb:b2:26:33:6f:1e:f0:3d:22:23:73:c6:b3:55:b1:eb:e4:
         bd:9e:04:a3:a8:fd:85:c5:34:b0:11:09:37:03:25:7f:82:90:
         30:69:06:93:c2:82:5a:5c:9c:78:de:a4:d1:22:b1:ad:5a:c2:
         e0:d9:c3:04
-----BEGIN CERTIFICATE-----
MIIFVjCCBD6gAwIBAgIBAjANBgkqhkiG9w0BAQsFADCBtzELMAkGA1UEBhMCRUMx
DzANBgNVBAgTBkd1YXlhczESMBAGA1UEBxMJR3VheWFxdWlsMRgwFgYDVQQKEw9D
YXJtaXRhUHJvZHVjdHMxETAPBgNVBAsTCFNpc3RlbWFzMRcwFQYDVQQDEw5nZXNy
dmxpbnV4YzcxNTEPMA0GA1UEKRMGc2VydmVyMSwwKgYJKoZIhvcNAQkBFh1pcm9t
YW5AY2FybWl0YXByb2R1Y3RzLmNvbS5lYzAeFw0xNjAxMjQxOTExNTlaFw0yNjAx
MjExOTExNTlaMIGyMQswCQYDVQQGEwJFQzEPMA0GA1UECBMGR3VheWFzMRIwEAYD
VQQHEwlHdWF5YXF1aWwxGDAWBgNVBAoTD0Nhcm1pdGFQcm9kdWN0czERMA8GA1UE
CxMIU2lzdGVtYXMxEjAQBgNVBAMUCWdjcF91c3IwMTEPMA0GA1UEKRMGc2VydmVy
MSwwKgYJKoZIhvcNAQkBFh1pcm9tYW5AY2FybWl0YXByb2R1Y3RzLmNvbS5lYzCC
ASIwDQYJKoZIhvcNAQEBBQADggEPADCCAQoCggEBANF8+qz2iLaGp165LwHiUrKC
Lbds/GmHrVNFJKEEyPkv1bh/SJBt1PFNhI4rHvM1RQP9IathWFPbGxiW35w01M5m
wXjx4dEjLcuooGB7mdskimcmwGYZhzlMq13I2rEaI2kdzWWIW+Et9kWNH8MNhZXE
gODCXqFycsFLkZCQ+40P5gNKpK97sYvYWYKDzqvuoobEle3hV5rfBpK9e7OTTB71
Wz4wGc1tqXnuLjZ0D5uqel7DKC0lcO8ii+3DR2XtDcY2x5p283tV6N/wzFY3cZ8W
fC0qQSWlejZJTB+o+Av92uIZ17TaL8+PUiB8EGZSHrsp5FgfK/Px7c7tTLvvy00C
AwEAAaOCAW4wggFqMAkGA1UdEwQCMAAwLQYJYIZIAYb4QgENBCAWHkVhc3ktUlNB
IEdlbmVyYXRlZCBDZXJ0aWZpY2F0ZTAdBgNVHQ4EFgQUnhwtXDjddJcJvvTk4IQB
ElQ+nbQwgewGA1UdIwSB5DCB4YAU2cZ0Ko322+V9oz/R0X21iTKWebGhgb2kgbow
gbcxCzAJBgNVBAYTAkVDMQ8wDQYDVQQIEwZHdWF5YXMxEjAQBgNVBAcTCUd1YXlh
cXVpbDEYMBYGA1UEChMPQ2FybWl0YVByb2R1Y3RzMREwDwYDVQQLEwhTaXN0ZW1h
czEXMBUGA1UEAxMOZ2VzcnZsaW51eGM3MTUxDzANBgNVBCkTBnNlcnZlcjEsMCoG
CSqGSIb3DQEJARYdaXJvbWFuQGNhcm1pdGFwcm9kdWN0cy5jb20uZWOCCQDtePJs
4zU3vDATBgNVHSUEDDAKBggrBgEFBQcDAjALBgNVHQ8EBAMCB4AwDQYJKoZIhvcN
AQELBQADggEBACvjvx7Akm3eDBrOWbsmxYg15sE5GCLtfablZAqNOFVBQ/2aF7Hi
fi/dqriWykex9c5uwN0ytYzclN/cQsp+R1wcVr1CLvnbSpwXZMFBlDb3e1YFap1H
QfBJAQM/hfhe4BKfAFXjYx/34Z4bL7OnH5UB/P46Aq6sOD/G2zmg3+U1SMt9vtq8
QgrxYKFnkXgMvRlze0AXkCStzbO/2xeIgoMwvN7LUrDF49+2DWUeNgp5rPjADdik
YiBV5KdXeVy1BaUBqT0Av0W7siYzbx7wPSIjc8azVbHr5L2eBKOo/YXFNLARCTcD
JX+CkDBpBpPCglpcnHjepNEisa1awuDZwwQ=
-----END CERTIFICATE-----
