Certificate:
    Data:
        Version: 3 (0x2)
        Serial Number: 3 (0x3)
    Signature Algorithm: sha256WithRSAEncryption
        Issuer: C=EC, ST=Guayas, L=Guayaquil, O=CarmitaProducts, OU=Sistemas, CN=gesrvlinuxc715/name=server/emailAddress=iroman@carmitaproducts.com.ec
        Validity
            Not Before: Jan 24 19:12:11 2016 GMT
            Not After : Jan 21 19:12:11 2026 GMT
        Subject: C=EC, ST=Guayas, L=Guayaquil, O=CarmitaProducts, OU=Sistemas, CN=gcp_usr02/name=server/emailAddress=iroman@carmitaproducts.com.ec
        Subject Public Key Info:
            Public Key Algorithm: rsaEncryption
                Public-Key: (2048 bit)
                Modulus:
                    00:cc:6c:ed:a3:c8:80:20:16:f7:9d:df:f1:e6:54:
                    02:95:1c:4d:86:d8:36:1f:77:9b:5c:b2:0a:d8:fd:
                    6d:89:95:17:20:11:09:e7:c3:22:92:7b:0c:1e:dd:
                    5f:4e:66:e4:78:04:dc:6c:69:23:07:f7:9c:79:d8:
                    a0:4b:ac:eb:67:1c:b8:ad:89:3a:55:15:56:e5:c2:
                    69:66:23:88:5c:23:e1:ea:b1:b9:2d:63:4b:a5:8e:
                    a4:d3:bd:02:e2:64:be:5f:da:c3:39:7f:19:af:2a:
                    c2:25:21:2a:38:55:92:9b:d2:62:54:c6:6a:85:bc:
                    04:af:4e:fb:3c:97:39:88:32:46:8e:24:cf:89:c4:
                    aa:47:7a:5a:91:32:e4:e7:68:67:0a:83:10:9f:5a:
                    b8:94:b2:4a:f5:90:32:45:0f:c3:48:56:b3:b4:b4:
                    96:77:0f:fd:36:df:cd:f2:97:e1:4b:b1:55:ec:70:
                    a1:d1:8d:7c:68:07:90:eb:2b:f0:6f:23:db:e1:9f:
                    27:5e:c9:b5:83:82:01:de:3b:bd:e9:6b:7e:e5:b1:
                    ed:9d:05:b5:37:3f:fc:59:1a:70:72:88:8f:58:e1:
                    b7:5b:a7:7c:2c:0f:ae:40:3e:c5:21:06:5d:da:b1:
                    a6:e9:69:26:24:bc:86:9a:79:0a:c9:a2:b0:6b:26:
                    19:93
                Exponent: 65537 (0x10001)
        X509v3 extensions:
            X509v3 Basic Constraints: 
                CA:FALSE
            Netscape Comment: 
                Easy-RSA Generated Certificate
            X509v3 Subject Key Identifier: 
                F2:B6:E1:A4:4C:1B:5C:AB:DB:FD:84:69:38:11:4A:98:58:0E:2C:C8
            X509v3 Authority Key Identifier: 
                keyid:D9:C6:74:2A:8D:F6:DB:E5:7D:A3:3F:D1:D1:7D:B5:89:32:96:79:B1
                DirName:/C=EC/ST=Guayas/L=Guayaquil/O=CarmitaProducts/OU=Sistemas/CN=gesrvlinuxc715/name=server/emailAddress=iroman@carmitaproducts.com.ec
                serial:ED:78:F2:6C:E3:35:37:BC

            X509v3 Extended Key Usage: 
                TLS Web Client Authentication
            X509v3 Key Usage: 
                Digital Signature
    Signature Algorithm: sha256WithRSAEncryption
         66:d6:6b:06:94:98:c5:03:45:d1:06:3f:5d:e6:48:58:2f:d3:
         9d:b6:1c:e2:fd:d6:03:fe:bf:ce:32:10:e3:39:9b:3f:45:aa:
         67:40:85:55:43:82:c1:80:8c:03:9d:5c:26:68:9a:09:bf:92:
         dd:e0:ff:c0:7b:14:31:dd:96:7a:2c:21:18:f0:63:87:56:af:
         e4:80:9f:89:fe:cc:7c:0f:3d:05:fa:26:c5:01:c6:3e:5c:cf:
         a3:c1:3b:a6:8f:f4:5f:8b:ff:19:ea:02:5a:cb:dc:df:bb:f5:
         e9:13:af:17:fb:14:18:a4:db:c8:10:dc:27:70:4c:55:48:cc:
         cb:77:d8:25:43:7c:19:e2:2e:cf:7a:fe:6e:cb:23:bf:47:b4:
         88:c4:3c:c8:87:7c:ec:4f:b5:61:91:1d:5c:ef:1a:98:55:0c:
         da:56:e0:f5:6a:ec:9a:32:79:76:0d:d6:c4:be:7f:6f:fe:53:
         69:c8:4c:ad:7a:02:32:bc:a5:2f:da:37:01:eb:ed:e5:2a:24:
         67:ec:7e:0a:ae:42:ae:45:db:0d:6d:25:4a:c9:9b:11:b8:50:
         1c:05:f6:29:d4:a0:4f:11:cb:d8:12:ce:a9:b4:33:f6:fb:88:
         27:8b:5a:4e:8f:5c:3f:75:62:2f:63:7b:3d:73:b5:7f:7d:cb:
         71:a0:cd:97
-----BEGIN CERTIFICATE-----
MIIFVjCCBD6gAwIBAgIBAzANBgkqhkiG9w0BAQsFADCBtzELMAkGA1UEBhMCRUMx
DzANBgNVBAgTBkd1YXlhczESMBAGA1UEBxMJR3VheWFxdWlsMRgwFgYDVQQKEw9D
YXJtaXRhUHJvZHVjdHMxETAPBgNVBAsTCFNpc3RlbWFzMRcwFQYDVQQDEw5nZXNy
dmxpbnV4YzcxNTEPMA0GA1UEKRMGc2VydmVyMSwwKgYJKoZIhvcNAQkBFh1pcm9t
YW5AY2FybWl0YXByb2R1Y3RzLmNvbS5lYzAeFw0xNjAxMjQxOTEyMTFaFw0yNjAx
MjExOTEyMTFaMIGyMQswCQYDVQQGEwJFQzEPMA0GA1UECBMGR3VheWFzMRIwEAYD
VQQHEwlHdWF5YXF1aWwxGDAWBgNVBAoTD0Nhcm1pdGFQcm9kdWN0czERMA8GA1UE
CxMIU2lzdGVtYXMxEjAQBgNVBAMUCWdjcF91c3IwMjEPMA0GA1UEKRMGc2VydmVy
MSwwKgYJKoZIhvcNAQkBFh1pcm9tYW5AY2FybWl0YXByb2R1Y3RzLmNvbS5lYzCC
ASIwDQYJKoZIhvcNAQEBBQADggEPADCCAQoCggEBAMxs7aPIgCAW953f8eZUApUc
TYbYNh93m1yyCtj9bYmVFyARCefDIpJ7DB7dX05m5HgE3GxpIwf3nHnYoEus62cc
uK2JOlUVVuXCaWYjiFwj4eqxuS1jS6WOpNO9AuJkvl/awzl/Ga8qwiUhKjhVkpvS
YlTGaoW8BK9O+zyXOYgyRo4kz4nEqkd6WpEy5OdoZwqDEJ9auJSySvWQMkUPw0hW
s7S0lncP/TbfzfKX4UuxVexwodGNfGgHkOsr8G8j2+GfJ17JtYOCAd47velrfuWx
7Z0FtTc//FkacHKIj1jht1unfCwPrkA+xSEGXdqxpulpJiS8hpp5CsmisGsmGZMC
AwEAAaOCAW4wggFqMAkGA1UdEwQCMAAwLQYJYIZIAYb4QgENBCAWHkVhc3ktUlNB
IEdlbmVyYXRlZCBDZXJ0aWZpY2F0ZTAdBgNVHQ4EFgQU8rbhpEwbXKvb/YRpOBFK
mFgOLMgwgewGA1UdIwSB5DCB4YAU2cZ0Ko322+V9oz/R0X21iTKWebGhgb2kgbow
gbcxCzAJBgNVBAYTAkVDMQ8wDQYDVQQIEwZHdWF5YXMxEjAQBgNVBAcTCUd1YXlh
cXVpbDEYMBYGA1UEChMPQ2FybWl0YVByb2R1Y3RzMREwDwYDVQQLEwhTaXN0ZW1h
czEXMBUGA1UEAxMOZ2VzcnZsaW51eGM3MTUxDzANBgNVBCkTBnNlcnZlcjEsMCoG
CSqGSIb3DQEJARYdaXJvbWFuQGNhcm1pdGFwcm9kdWN0cy5jb20uZWOCCQDtePJs
4zU3vDATBgNVHSUEDDAKBggrBgEFBQcDAjALBgNVHQ8EBAMCB4AwDQYJKoZIhvcN
AQELBQADggEBAGbWawaUmMUDRdEGP13mSFgv0522HOL91gP+v84yEOM5mz9FqmdA
hVVDgsGAjAOdXCZomgm/kt3g/8B7FDHdlnosIRjwY4dWr+SAn4n+zHwPPQX6JsUB
xj5cz6PBO6aP9F+L/xnqAlrL3N+79ekTrxf7FBik28gQ3CdwTFVIzMt32CVDfBni
Ls96/m7LI79HtIjEPMiHfOxPtWGRHVzvGphVDNpW4PVq7JoyeXYN1sS+f2/+U2nI
TK16AjK8pS/aNwHr7eUqJGfsfgquQq5F2w1tJUrJmxG4UBwF9inUoE8Ry9gSzqm0
M/b7iCeLWk6PXD91Yi9jez1ztX99y3GgzZc=
-----END CERTIFICATE-----
