Certificate:
    Data:
        Version: 3 (0x2)
        Serial Number: 12 (0xc)
    Signature Algorithm: sha256WithRSAEncryption
        Issuer: C=EC, ST=Guayas, L=Guayaquil, O=CarmitaProducts, OU=GCP, CN=gesrvlinuxc701/name=server/emailAddress=iroman@carmitaproducts.com.ec
        Validity
            Not Before: Aug  4 03:08:57 2015 GMT
            Not After : Aug  1 03:08:57 2025 GMT
        Subject: C=EC, ST=Guayas, L=Guayaquil, O=CarmitaProducts, OU=GCP, CN=gcp_usr10/name=server/emailAddress=iroman@carmitaproducts.com.ec
        Subject Public Key Info:
            Public Key Algorithm: rsaEncryption
                Public-Key: (2048 bit)
                Modulus:
                    00:d1:a6:7d:cb:8b:2d:09:aa:2a:fd:7c:97:d9:1e:
                    51:ee:62:92:6d:66:02:ef:32:c9:61:f3:d1:f9:55:
                    23:53:fb:01:c8:54:cc:f5:d4:bb:70:21:ed:47:f0:
                    2e:4c:10:80:79:52:7d:83:09:b4:75:4e:c8:f7:88:
                    6b:62:68:32:26:89:5d:9f:26:ba:ff:98:84:47:88:
                    57:34:f7:48:28:72:5c:e7:54:68:3f:d2:f6:b5:9e:
                    ba:55:b6:8f:43:b4:d8:3f:54:73:b4:9f:8d:dd:7b:
                    a7:48:69:2a:1f:87:24:45:24:e0:ce:4e:25:6d:4d:
                    a5:4d:78:17:89:e6:15:f6:23:ca:42:dd:7d:75:10:
                    d1:72:06:be:82:77:8d:7a:36:19:04:e9:76:16:00:
                    d1:bc:1d:82:6e:84:84:98:e7:98:fa:90:6c:b2:5e:
                    81:20:59:06:8d:f4:9c:5f:89:d9:75:2e:02:6e:76:
                    56:5e:bd:cd:d8:35:80:fe:11:2f:37:cc:bf:0e:04:
                    48:3b:50:23:ff:58:57:97:8f:d5:f3:c8:ed:ee:a9:
                    b1:f2:ee:45:26:f2:dd:44:aa:d1:a6:4f:5a:e8:1e:
                    11:ea:f2:c5:69:95:d8:39:ef:b8:0f:91:e0:04:c1:
                    1f:f0:5d:87:b2:a2:48:5f:23:7e:fc:00:3a:52:12:
                    83:77
                Exponent: 65537 (0x10001)
        X509v3 extensions:
            X509v3 Basic Constraints: 
                CA:FALSE
            Netscape Comment: 
                Easy-RSA Generated Certificate
            X509v3 Subject Key Identifier: 
                30:B4:F5:E5:AB:AC:05:67:9C:00:18:60:3B:9D:65:58:09:4F:5F:97
            X509v3 Authority Key Identifier: 
                keyid:70:D7:B9:E0:57:EF:29:51:4A:74:5B:CD:5A:22:2A:0F:D9:89:FE:90
                DirName:/C=EC/ST=Guayas/L=Guayaquil/O=CarmitaProducts/OU=GCP/CN=gesrvlinuxc701/name=server/emailAddress=iroman@carmitaproducts.com.ec
                serial:DC:63:96:48:86:26:D0:92

            X509v3 Extended Key Usage: 
                TLS Web Client Authentication
            X509v3 Key Usage: 
                Digital Signature
    Signature Algorithm: sha256WithRSAEncryption
         22:d6:5b:c8:71:ce:60:e8:83:04:4b:f0:7a:00:c0:43:d4:f7:
         1f:9f:35:8a:81:4b:aa:9a:0b:c3:27:61:b4:53:9c:3c:be:33:
         29:6c:8c:ff:7f:51:ec:46:f9:c9:be:9a:d0:74:28:03:81:f9:
         60:e9:5b:1d:ce:a0:2b:cf:97:4d:58:b5:ff:d4:ed:c3:4c:95:
         6f:0c:05:b4:01:b1:b3:d0:5f:2e:ce:d5:90:50:ba:eb:91:a8:
         e5:50:2d:cd:85:27:8d:4f:7d:cd:a7:79:08:88:94:c5:2a:26:
         21:4b:16:a6:67:ed:6c:3d:4e:5a:0b:19:6d:02:b5:14:ee:c9:
         f2:6e:a6:88:c0:76:43:05:3e:da:b3:74:fd:cd:02:01:78:8e:
         7d:16:9f:e3:ce:80:75:f3:52:7b:67:1e:ea:f3:9c:97:5d:f6:
         2c:21:ec:2a:35:58:b0:8c:06:0d:8b:af:b5:e8:8c:41:51:b0:
         87:d1:72:c9:cb:f3:c6:80:76:7d:97:d5:2f:28:ee:5b:7f:91:
         46:39:51:6d:49:d5:04:b6:93:12:6e:a9:ba:14:0f:1f:78:b4:
         79:cc:5d:65:87:ee:80:dd:07:3d:c8:42:08:74:9b:6a:d8:79:
         4e:6a:e3:b4:ee:09:e6:f8:63:b7:ea:d3:50:5e:b6:6a:d7:53:
         ce:9b:53:a1
-----BEGIN CERTIFICATE-----
MIIFRzCCBC+gAwIBAgIBDDANBgkqhkiG9w0BAQsFADCBsjELMAkGA1UEBhMCRUMx
DzANBgNVBAgTBkd1YXlhczESMBAGA1UEBxMJR3VheWFxdWlsMRgwFgYDVQQKEw9D
YXJtaXRhUHJvZHVjdHMxDDAKBgNVBAsTA0dDUDEXMBUGA1UEAxMOZ2VzcnZsaW51
eGM3MDExDzANBgNVBCkTBnNlcnZlcjEsMCoGCSqGSIb3DQEJARYdaXJvbWFuQGNh
cm1pdGFwcm9kdWN0cy5jb20uZWMwHhcNMTUwODA0MDMwODU3WhcNMjUwODAxMDMw
ODU3WjCBrTELMAkGA1UEBhMCRUMxDzANBgNVBAgTBkd1YXlhczESMBAGA1UEBxMJ
R3VheWFxdWlsMRgwFgYDVQQKEw9DYXJtaXRhUHJvZHVjdHMxDDAKBgNVBAsTA0dD
UDESMBAGA1UEAxQJZ2NwX3VzcjEwMQ8wDQYDVQQpEwZzZXJ2ZXIxLDAqBgkqhkiG
9w0BCQEWHWlyb21hbkBjYXJtaXRhcHJvZHVjdHMuY29tLmVjMIIBIjANBgkqhkiG
9w0BAQEFAAOCAQ8AMIIBCgKCAQEA0aZ9y4stCaoq/XyX2R5R7mKSbWYC7zLJYfPR
+VUjU/sByFTM9dS7cCHtR/AuTBCAeVJ9gwm0dU7I94hrYmgyJoldnya6/5iER4hX
NPdIKHJc51RoP9L2tZ66VbaPQ7TYP1RztJ+N3XunSGkqH4ckRSTgzk4lbU2lTXgX
ieYV9iPKQt19dRDRcga+gneNejYZBOl2FgDRvB2CboSEmOeY+pBssl6BIFkGjfSc
X4nZdS4CbnZWXr3N2DWA/hEvN8y/DgRIO1Aj/1hXl4/V88jt7qmx8u5FJvLdRKrR
pk9a6B4R6vLFaZXYOe+4D5HgBMEf8F2HsqJIXyN+/AA6UhKDdwIDAQABo4IBaTCC
AWUwCQYDVR0TBAIwADAtBglghkgBhvhCAQ0EIBYeRWFzeS1SU0EgR2VuZXJhdGVk
IENlcnRpZmljYXRlMB0GA1UdDgQWBBQwtPXlq6wFZ5wAGGA7nWVYCU9flzCB5wYD
VR0jBIHfMIHcgBRw17ngV+8pUUp0W81aIioP2Yn+kKGBuKSBtTCBsjELMAkGA1UE
BhMCRUMxDzANBgNVBAgTBkd1YXlhczESMBAGA1UEBxMJR3VheWFxdWlsMRgwFgYD
VQQKEw9DYXJtaXRhUHJvZHVjdHMxDDAKBgNVBAsTA0dDUDEXMBUGA1UEAxMOZ2Vz
cnZsaW51eGM3MDExDzANBgNVBCkTBnNlcnZlcjEsMCoGCSqGSIb3DQEJARYdaXJv
bWFuQGNhcm1pdGFwcm9kdWN0cy5jb20uZWOCCQDcY5ZIhibQkjATBgNVHSUEDDAK
BggrBgEFBQcDAjALBgNVHQ8EBAMCB4AwDQYJKoZIhvcNAQELBQADggEBACLWW8hx
zmDogwRL8HoAwEPU9x+fNYqBS6qaC8MnYbRTnDy+MylsjP9/UexG+cm+mtB0KAOB
+WDpWx3OoCvPl01Ytf/U7cNMlW8MBbQBsbPQXy7O1ZBQuuuRqOVQLc2FJ41Pfc2n
eQiIlMUqJiFLFqZn7Ww9TloLGW0CtRTuyfJupojAdkMFPtqzdP3NAgF4jn0Wn+PO
gHXzUntnHurznJdd9iwh7Co1WLCMBg2Lr7XojEFRsIfRcsnL88aAdn2X1S8o7lt/
kUY5UW1J1QS2kxJuqboUDx94tHnMXWWH7oDdBz3IQgh0m2rYeU5q47TuCeb4Y7fq
01BetmrXU86bU6E=
-----END CERTIFICATE-----
