Certificate:
    Data:
        Version: 3 (0x2)
        Serial Number: 10 (0xa)
    Signature Algorithm: sha256WithRSAEncryption
        Issuer: C=EC, ST=Guayas, L=Guayaquil, O=CarmitaProducts, OU=Sistemas, CN=gesrvlinuxc715/name=server/emailAddress=iroman@carmitaproducts.com.ec
        Validity
            Not Before: Jan 24 19:14:23 2016 GMT
            Not After : Jan 21 19:14:23 2026 GMT
        Subject: C=EC, ST=Guayas, L=Guayaquil, O=CarmitaProducts, OU=Sistemas, CN=gcp_usr09/name=server/emailAddress=iroman@carmitaproducts.com.ec
        Subject Public Key Info:
            Public Key Algorithm: rsaEncryption
                Public-Key: (2048 bit)
                Modulus:
                    00:9d:bf:c6:04:ce:7c:8d:3d:51:a7:16:e7:24:4a:
                    14:97:fb:bf:e2:f9:34:17:99:04:8f:a4:25:9b:b7:
                    36:71:7c:80:08:0c:f2:4f:88:1d:b6:59:68:be:8f:
                    f8:91:67:38:a6:93:51:ff:29:1c:01:e0:5e:01:2b:
                    14:4d:01:b5:06:60:26:c5:98:db:50:e6:47:e2:04:
                    c0:6e:78:b2:55:5e:50:f6:3d:1a:3b:06:31:ab:f7:
                    db:c3:ca:0d:b1:85:bd:23:2d:e7:ce:75:ee:9a:72:
                    08:da:66:48:f6:46:7e:3c:d3:56:2c:49:29:13:c3:
                    32:c9:c3:d2:d2:01:8d:da:bd:ec:aa:37:3a:1e:e0:
                    ca:d7:01:c7:a2:04:f8:ed:46:57:38:33:6e:10:aa:
                    88:e0:ab:0c:a4:a2:80:6a:6f:0d:9a:ad:f2:ee:57:
                    97:52:4f:30:f6:96:d1:68:55:ca:f8:f8:65:0a:ce:
                    ed:df:9c:05:68:49:2f:91:32:d2:e9:df:19:39:93:
                    43:95:19:c5:d9:8c:b4:3d:0d:81:aa:79:26:2b:34:
                    c4:1d:29:70:56:a1:ba:d2:08:cc:d0:d0:b0:b8:70:
                    a1:8a:0b:4f:28:c0:74:b2:6b:83:43:dd:65:07:7f:
                    eb:88:c8:75:ef:9d:f2:06:4b:d2:29:de:29:40:d2:
                    b6:61
                Exponent: 65537 (0x10001)
        X509v3 extensions:
            X509v3 Basic Constraints: 
                CA:FALSE
            Netscape Comment: 
                Easy-RSA Generated Certificate
            X509v3 Subject Key Identifier: 
                F8:5B:04:5A:41:7F:88:EB:F9:83:22:17:7D:21:81:26:9D:A1:FE:1F
            X509v3 Authority Key Identifier: 
                keyid:D9:C6:74:2A:8D:F6:DB:E5:7D:A3:3F:D1:D1:7D:B5:89:32:96:79:B1
                DirName:/C=EC/ST=Guayas/L=Guayaquil/O=CarmitaProducts/OU=Sistemas/CN=gesrvlinuxc715/name=server/emailAddress=iroman@carmitaproducts.com.ec
                serial:ED:78:F2:6C:E3:35:37:BC

            X509v3 Extended Key Usage: 
                TLS Web Client Authentication
            X509v3 Key Usage: 
                Digital Signature
    Signature Algorithm: sha256WithRSAEncryption
         bb:5c:ef:e9:ce:34:84:86:64:d1:17:a0:3b:0b:a5:0e:86:28:
         ad:d9:cf:3e:64:b5:7b:da:1d:d1:b8:0b:6c:31:81:76:a5:53:
         c6:11:d3:2b:19:d9:21:86:6c:e5:dd:4e:3b:b3:42:9c:51:73:
         cd:67:16:9c:6f:11:af:61:f6:d1:fa:57:17:df:dd:00:38:fe:
         63:f8:f6:a2:af:62:b8:cf:d5:de:60:d0:dc:79:af:e4:93:f6:
         1c:36:b2:0a:79:39:16:65:c6:69:cc:05:70:da:79:4f:11:7b:
         59:ce:4d:5f:d1:58:7e:4f:2b:7f:98:7e:86:22:09:a4:7d:1f:
         3d:52:ee:18:dd:64:f2:b4:98:8c:9e:8a:ca:34:9a:fa:ca:e7:
         d8:e3:63:4a:d5:d4:43:ad:fd:de:f1:4e:5a:38:14:e0:e9:91:
         b4:70:8f:29:b2:e2:d4:cb:ee:f1:f4:5d:d9:b1:7b:fe:03:f6:
         fa:90:e7:02:44:06:f4:36:6b:33:62:1d:19:02:c8:8a:08:3b:
         53:69:c2:cc:af:75:3d:2b:eb:e6:42:be:b2:64:b6:ad:fe:23:
         81:93:c0:f4:7a:7f:8e:25:55:44:27:c9:99:9b:d2:f0:2d:31:
         03:2a:18:a8:28:54:c8:a3:19:ed:20:38:a4:e1:ec:08:a4:b5:
         fe:e4:ce:35
-----BEGIN CERTIFICATE-----
MIIFVjCCBD6gAwIBAgIBCjANBgkqhkiG9w0BAQsFADCBtzELMAkGA1UEBhMCRUMx
DzANBgNVBAgTBkd1YXlhczESMBAGA1UEBxMJR3VheWFxdWlsMRgwFgYDVQQKEw9D
YXJtaXRhUHJvZHVjdHMxETAPBgNVBAsTCFNpc3RlbWFzMRcwFQYDVQQDEw5nZXNy
dmxpbnV4YzcxNTEPMA0GA1UEKRMGc2VydmVyMSwwKgYJKoZIhvcNAQkBFh1pcm9t
YW5AY2FybWl0YXByb2R1Y3RzLmNvbS5lYzAeFw0xNjAxMjQxOTE0MjNaFw0yNjAx
MjExOTE0MjNaMIGyMQswCQYDVQQGEwJFQzEPMA0GA1UECBMGR3VheWFzMRIwEAYD
VQQHEwlHdWF5YXF1aWwxGDAWBgNVBAoTD0Nhcm1pdGFQcm9kdWN0czERMA8GA1UE
CxMIU2lzdGVtYXMxEjAQBgNVBAMUCWdjcF91c3IwOTEPMA0GA1UEKRMGc2VydmVy
MSwwKgYJKoZIhvcNAQkBFh1pcm9tYW5AY2FybWl0YXByb2R1Y3RzLmNvbS5lYzCC
ASIwDQYJKoZIhvcNAQEBBQADggEPADCCAQoCggEBAJ2/xgTOfI09UacW5yRKFJf7
v+L5NBeZBI+kJZu3NnF8gAgM8k+IHbZZaL6P+JFnOKaTUf8pHAHgXgErFE0BtQZg
JsWY21DmR+IEwG54slVeUPY9GjsGMav328PKDbGFvSMt58517ppyCNpmSPZGfjzT
VixJKRPDMsnD0tIBjdq97Ko3Oh7gytcBx6IE+O1GVzgzbhCqiOCrDKSigGpvDZqt
8u5Xl1JPMPaW0WhVyvj4ZQrO7d+cBWhJL5Ey0unfGTmTQ5UZxdmMtD0Ngap5Jis0
xB0pcFahutIIzNDQsLhwoYoLTyjAdLJrg0PdZQd/64jIde+d8gZL0ineKUDStmEC
AwEAAaOCAW4wggFqMAkGA1UdEwQCMAAwLQYJYIZIAYb4QgENBCAWHkVhc3ktUlNB
IEdlbmVyYXRlZCBDZXJ0aWZpY2F0ZTAdBgNVHQ4EFgQU+FsEWkF/iOv5gyIXfSGB
Jp2h/h8wgewGA1UdIwSB5DCB4YAU2cZ0Ko322+V9oz/R0X21iTKWebGhgb2kgbow
gbcxCzAJBgNVBAYTAkVDMQ8wDQYDVQQIEwZHdWF5YXMxEjAQBgNVBAcTCUd1YXlh
cXVpbDEYMBYGA1UEChMPQ2FybWl0YVByb2R1Y3RzMREwDwYDVQQLEwhTaXN0ZW1h
czEXMBUGA1UEAxMOZ2VzcnZsaW51eGM3MTUxDzANBgNVBCkTBnNlcnZlcjEsMCoG
CSqGSIb3DQEJARYdaXJvbWFuQGNhcm1pdGFwcm9kdWN0cy5jb20uZWOCCQDtePJs
4zU3vDATBgNVHSUEDDAKBggrBgEFBQcDAjALBgNVHQ8EBAMCB4AwDQYJKoZIhvcN
AQELBQADggEBALtc7+nONISGZNEXoDsLpQ6GKK3Zzz5ktXvaHdG4C2wxgXalU8YR
0ysZ2SGGbOXdTjuzQpxRc81nFpxvEa9h9tH6Vxff3QA4/mP49qKvYrjP1d5g0Nx5
r+ST9hw2sgp5ORZlxmnMBXDaeU8Re1nOTV/RWH5PK3+YfoYiCaR9Hz1S7hjdZPK0
mIyeiso0mvrK59jjY0rV1EOt/d7xTlo4FODpkbRwjymy4tTL7vH0Xdmxe/4D9vqQ
5wJEBvQ2azNiHRkCyIoIO1NpwsyvdT0r6+ZCvrJktq3+I4GTwPR6f44lVUQnyZmb
0vAtMQMqGKgoVMijGe0gOKTh7Aiktf7kzjU=
-----END CERTIFICATE-----
