Certificate:
    Data:
        Version: 3 (0x2)
        Serial Number: 8 (0x8)
    Signature Algorithm: sha256WithRSAEncryption
        Issuer: C=EC, ST=Guayas, L=Guayaquil, O=CarmitaProducts, OU=Sistemas, CN=gesrvlinuxc715/name=server/emailAddress=iroman@carmitaproducts.com.ec
        Validity
            Not Before: Jan 24 19:14:09 2016 GMT
            Not After : Jan 21 19:14:09 2026 GMT
        Subject: C=EC, ST=Guayas, L=Guayaquil, O=CarmitaProducts, OU=Sistemas, CN=gcp_usr07/name=server/emailAddress=iroman@carmitaproducts.com.ec
        Subject Public Key Info:
            Public Key Algorithm: rsaEncryption
                Public-Key: (2048 bit)
                Modulus:
                    00:d1:aa:3e:d9:1f:6c:2d:46:ce:3c:72:cf:92:42:
                    72:f0:47:19:4b:dc:3b:d1:b4:7e:31:18:9b:6c:23:
                    11:90:8b:d4:ce:ce:8b:b5:f2:24:53:d8:8a:01:86:
                    6c:cb:ac:fa:82:09:35:be:c6:91:f8:0b:3b:27:8d:
                    f1:61:ac:4f:95:34:78:2b:15:df:2c:9f:84:be:b4:
                    a9:07:86:70:d0:c8:4d:ef:8f:3b:8e:a7:21:f5:49:
                    89:ea:3b:08:ee:a8:bf:24:a6:70:f9:a2:6f:0b:66:
                    a0:07:a3:dc:80:24:55:0f:36:a9:53:a7:c5:fe:12:
                    08:81:1a:29:10:63:61:67:46:ce:5b:59:9f:03:df:
                    1b:67:d4:10:a2:e6:aa:e4:f7:51:65:7d:42:b2:6b:
                    79:a1:81:31:c9:46:0c:4f:af:13:b2:6b:b9:9c:53:
                    23:03:85:76:72:fd:6f:9e:45:63:f6:f6:06:32:4a:
                    35:71:49:f2:de:01:6a:03:32:c6:f1:e7:44:5c:f3:
                    a1:db:d5:2f:3c:07:cf:43:65:c7:ac:42:79:05:1d:
                    20:9d:66:93:bc:2c:85:fb:31:b4:69:74:ec:fe:12:
                    18:0c:35:2f:e8:4e:7e:d0:83:70:25:60:4c:e1:69:
                    27:74:1c:3f:57:59:0f:c8:98:c1:c6:23:20:d1:20:
                    f3:1d
                Exponent: 65537 (0x10001)
        X509v3 extensions:
            X509v3 Basic Constraints: 
                CA:FALSE
            Netscape Comment: 
                Easy-RSA Generated Certificate
            X509v3 Subject Key Identifier: 
                8B:1F:58:6E:22:C8:16:84:2D:B0:E3:85:9B:CB:2A:56:26:3A:1B:35
            X509v3 Authority Key Identifier: 
                keyid:D9:C6:74:2A:8D:F6:DB:E5:7D:A3:3F:D1:D1:7D:B5:89:32:96:79:B1
                DirName:/C=EC/ST=Guayas/L=Guayaquil/O=CarmitaProducts/OU=Sistemas/CN=gesrvlinuxc715/name=server/emailAddress=iroman@carmitaproducts.com.ec
                serial:ED:78:F2:6C:E3:35:37:BC

            X509v3 Extended Key Usage: 
                TLS Web Client Authentication
            X509v3 Key Usage: 
                Digital Signature
    Signature Algorithm: sha256WithRSAEncryption
         97:62:e5:82:db:9b:c1:36:ba:0e:bc:24:11:de:43:66:60:5d:
         76:37:b7:63:5d:85:b9:dc:0d:7a:a7:11:f2:ce:3e:3f:45:be:
         61:e1:95:ca:7d:15:7b:40:99:c1:a8:60:82:47:ae:e1:14:66:
         23:0d:83:52:e0:63:48:db:b5:e7:c6:fd:ac:0a:f0:19:2b:58:
         46:6a:de:9a:44:82:ca:c6:72:ee:9a:62:b4:71:41:f1:f3:d2:
         80:56:11:97:49:16:06:d1:b2:8f:05:57:90:00:48:18:67:bf:
         af:2e:cc:6f:31:74:11:cb:cb:05:f8:8b:43:11:3f:36:cf:43:
         50:ad:34:69:76:15:1e:1a:78:e6:fc:1e:e4:1a:24:1e:63:f4:
         e1:e1:9a:52:d6:ca:a7:36:8c:d2:23:71:2c:5c:aa:f7:0d:6f:
         87:ea:7a:41:16:b9:1d:95:de:ec:fe:d8:1e:d3:93:58:08:45:
         3a:39:20:5c:b1:d7:53:ea:d5:c4:b7:6f:00:83:df:d9:85:ea:
         b7:cb:e3:7d:21:ca:cc:65:d3:21:9c:26:6a:79:69:4e:97:ff:
         11:21:38:79:f3:ea:69:39:ae:97:31:bd:ab:67:ef:4c:0f:8a:
         1b:7f:3a:78:02:b0:ce:88:02:e2:d0:86:30:42:55:02:c7:14:
         70:26:22:e1
-----BEGIN CERTIFICATE-----
MIIFVjCCBD6gAwIBAgIBCDANBgkqhkiG9w0BAQsFADCBtzELMAkGA1UEBhMCRUMx
DzANBgNVBAgTBkd1YXlhczESMBAGA1UEBxMJR3VheWFxdWlsMRgwFgYDVQQKEw9D
YXJtaXRhUHJvZHVjdHMxETAPBgNVBAsTCFNpc3RlbWFzMRcwFQYDVQQDEw5nZXNy
dmxpbnV4YzcxNTEPMA0GA1UEKRMGc2VydmVyMSwwKgYJKoZIhvcNAQkBFh1pcm9t
YW5AY2FybWl0YXByb2R1Y3RzLmNvbS5lYzAeFw0xNjAxMjQxOTE0MDlaFw0yNjAx
MjExOTE0MDlaMIGyMQswCQYDVQQGEwJFQzEPMA0GA1UECBMGR3VheWFzMRIwEAYD
VQQHEwlHdWF5YXF1aWwxGDAWBgNVBAoTD0Nhcm1pdGFQcm9kdWN0czERMA8GA1UE
CxMIU2lzdGVtYXMxEjAQBgNVBAMUCWdjcF91c3IwNzEPMA0GA1UEKRMGc2VydmVy
MSwwKgYJKoZIhvcNAQkBFh1pcm9tYW5AY2FybWl0YXByb2R1Y3RzLmNvbS5lYzCC
ASIwDQYJKoZIhvcNAQEBBQADggEPADCCAQoCggEBANGqPtkfbC1Gzjxyz5JCcvBH
GUvcO9G0fjEYm2wjEZCL1M7Oi7XyJFPYigGGbMus+oIJNb7GkfgLOyeN8WGsT5U0
eCsV3yyfhL60qQeGcNDITe+PO46nIfVJieo7CO6ovySmcPmibwtmoAej3IAkVQ82
qVOnxf4SCIEaKRBjYWdGzltZnwPfG2fUEKLmquT3UWV9QrJreaGBMclGDE+vE7Jr
uZxTIwOFdnL9b55FY/b2BjJKNXFJ8t4BagMyxvHnRFzzodvVLzwHz0Nlx6xCeQUd
IJ1mk7wshfsxtGl07P4SGAw1L+hOftCDcCVgTOFpJ3QcP1dZD8iYwcYjINEg8x0C
AwEAAaOCAW4wggFqMAkGA1UdEwQCMAAwLQYJYIZIAYb4QgENBCAWHkVhc3ktUlNB
IEdlbmVyYXRlZCBDZXJ0aWZpY2F0ZTAdBgNVHQ4EFgQUix9YbiLIFoQtsOOFm8sq
ViY6GzUwgewGA1UdIwSB5DCB4YAU2cZ0Ko322+V9oz/R0X21iTKWebGhgb2kgbow
gbcxCzAJBgNVBAYTAkVDMQ8wDQYDVQQIEwZHdWF5YXMxEjAQBgNVBAcTCUd1YXlh
cXVpbDEYMBYGA1UEChMPQ2FybWl0YVByb2R1Y3RzMREwDwYDVQQLEwhTaXN0ZW1h
czEXMBUGA1UEAxMOZ2VzcnZsaW51eGM3MTUxDzANBgNVBCkTBnNlcnZlcjEsMCoG
CSqGSIb3DQEJARYdaXJvbWFuQGNhcm1pdGFwcm9kdWN0cy5jb20uZWOCCQDtePJs
4zU3vDATBgNVHSUEDDAKBggrBgEFBQcDAjALBgNVHQ8EBAMCB4AwDQYJKoZIhvcN
AQELBQADggEBAJdi5YLbm8E2ug68JBHeQ2ZgXXY3t2NdhbncDXqnEfLOPj9FvmHh
lcp9FXtAmcGoYIJHruEUZiMNg1LgY0jbtefG/awK8BkrWEZq3ppEgsrGcu6aYrRx
QfHz0oBWEZdJFgbRso8FV5AASBhnv68uzG8xdBHLywX4i0MRPzbPQ1CtNGl2FR4a
eOb8HuQaJB5j9OHhmlLWyqc2jNIjcSxcqvcNb4fqekEWuR2V3uz+2B7Tk1gIRTo5
IFyx11Pq1cS3bwCD39mF6rfL430hysxl0yGcJmp5aU6X/xEhOHnz6mk5rpcxvatn
70wPiht/OngCsM6IAuLQhjBCVQLHFHAmIuE=
-----END CERTIFICATE-----
