Certificate:
    Data:
        Version: 3 (0x2)
        Serial Number: 4 (0x4)
    Signature Algorithm: sha256WithRSAEncryption
        Issuer: C=EC, ST=Guayas, L=Guayaquil, O=CarmitaProducts, OU=Sistemas, CN=gesrvlinuxc715/name=server/emailAddress=iroman@carmitaproducts.com.ec
        Validity
            Not Before: Jan 24 19:12:24 2016 GMT
            Not After : Jan 21 19:12:24 2026 GMT
        Subject: C=EC, ST=Guayas, L=Guayaquil, O=CarmitaProducts, OU=Sistemas, CN=gcp_usr03/name=server/emailAddress=iroman@carmitaproducts.com.ec
        Subject Public Key Info:
            Public Key Algorithm: rsaEncryption
                Public-Key: (2048 bit)
                Modulus:
                    00:b9:d9:77:85:57:6e:b7:8f:cd:8c:3e:d3:a4:ca:
                    f8:e8:4e:af:03:30:2f:39:9a:30:15:1e:08:15:77:
                    e1:3f:e5:3e:15:d2:d3:82:44:cd:be:6b:b0:b3:a8:
                    69:d1:a0:39:ca:a7:68:d2:d5:66:9c:80:83:f0:a4:
                    32:0d:f2:62:93:be:f6:56:82:9f:4c:2f:87:a5:34:
                    3b:6c:9e:5b:0d:1a:0e:cd:82:77:1c:f3:69:56:a0:
                    56:89:8a:e8:17:bd:9e:cc:7c:da:43:6b:2d:e6:a1:
                    cc:46:41:67:55:58:15:69:2c:44:00:95:75:17:52:
                    96:36:52:24:e6:c3:dc:ff:dc:a0:8e:da:6b:2c:40:
                    84:fc:c7:38:f7:e0:28:01:7c:70:cb:d3:08:38:a4:
                    fd:31:f3:72:9b:0f:ad:30:b8:85:4e:e8:37:db:d8:
                    af:2e:6d:ae:91:28:fb:81:13:b0:b0:85:c2:df:fc:
                    75:c2:a5:eb:32:5b:7a:7d:77:7a:9d:3c:9a:59:84:
                    16:80:09:0f:dd:8c:6c:59:d8:58:91:ba:48:f5:de:
                    79:e6:e3:79:62:e0:b9:3a:b8:53:02:47:d9:b2:33:
                    13:9a:bf:c7:6c:8c:9b:0c:91:df:89:7c:03:94:8a:
                    0d:58:3c:7e:05:2d:8a:07:ae:5c:80:ad:63:4f:52:
                    a7:3f
                Exponent: 65537 (0x10001)
        X509v3 extensions:
            X509v3 Basic Constraints: 
                CA:FALSE
            Netscape Comment: 
                Easy-RSA Generated Certificate
            X509v3 Subject Key Identifier: 
                5F:67:71:4F:9E:72:68:BD:68:26:46:41:00:C3:E0:CD:3C:B9:58:97
            X509v3 Authority Key Identifier: 
                keyid:D9:C6:74:2A:8D:F6:DB:E5:7D:A3:3F:D1:D1:7D:B5:89:32:96:79:B1
                DirName:/C=EC/ST=Guayas/L=Guayaquil/O=CarmitaProducts/OU=Sistemas/CN=gesrvlinuxc715/name=server/emailAddress=iroman@carmitaproducts.com.ec
                serial:ED:78:F2:6C:E3:35:37:BC

            X509v3 Extended Key Usage: 
                TLS Web Client Authentication
            X509v3 Key Usage: 
                Digital Signature
    Signature Algorithm: sha256WithRSAEncryption
         8c:bc:f5:da:1e:7e:03:de:3b:a3:87:f8:c5:5b:09:5a:2f:60:
         fe:c2:9f:97:62:16:99:a5:2a:8b:f5:b2:cf:54:7e:97:e7:d7:
         c4:5b:08:af:d5:86:e3:c1:6b:ff:48:f8:7e:1d:95:8c:ab:d9:
         d6:d7:6b:48:08:a3:0c:a6:71:19:2e:08:f9:75:79:94:e9:26:
         3e:80:a3:5b:13:4e:13:96:8b:51:74:79:9c:cb:b5:9c:71:d9:
         29:8d:7d:85:bd:23:f6:5f:1d:36:30:78:4f:b2:18:04:e6:99:
         96:e7:89:19:ee:46:f4:45:2e:e2:f6:1a:77:13:cd:19:e8:81:
         6d:bd:f8:86:f2:24:e0:38:e9:1b:7a:90:d6:86:86:d8:09:bc:
         14:de:8a:6f:3c:61:94:3a:5b:97:a2:72:a3:e7:f9:f7:f1:ae:
         77:ab:95:d4:55:02:82:36:d4:5c:d9:a0:6d:8d:5b:23:84:be:
         f4:90:74:72:7f:10:47:42:6a:a8:59:95:dd:0c:7d:70:87:24:
         ec:3b:23:2c:6d:27:82:63:03:79:55:3c:f4:ac:32:87:ea:2b:
         39:f3:15:a8:4f:af:6f:ae:1e:52:6b:4f:97:65:89:80:23:01:
         ad:35:95:15:81:55:d7:5a:15:9e:0e:16:e3:37:1f:09:be:38:
         da:1f:05:81
-----BEGIN CERTIFICATE-----
MIIFVjCCBD6gAwIBAgIBBDANBgkqhkiG9w0BAQsFADCBtzELMAkGA1UEBhMCRUMx
DzANBgNVBAgTBkd1YXlhczESMBAGA1UEBxMJR3VheWFxdWlsMRgwFgYDVQQKEw9D
YXJtaXRhUHJvZHVjdHMxETAPBgNVBAsTCFNpc3RlbWFzMRcwFQYDVQQDEw5nZXNy
dmxpbnV4YzcxNTEPMA0GA1UEKRMGc2VydmVyMSwwKgYJKoZIhvcNAQkBFh1pcm9t
YW5AY2FybWl0YXByb2R1Y3RzLmNvbS5lYzAeFw0xNjAxMjQxOTEyMjRaFw0yNjAx
MjExOTEyMjRaMIGyMQswCQYDVQQGEwJFQzEPMA0GA1UECBMGR3VheWFzMRIwEAYD
VQQHEwlHdWF5YXF1aWwxGDAWBgNVBAoTD0Nhcm1pdGFQcm9kdWN0czERMA8GA1UE
CxMIU2lzdGVtYXMxEjAQBgNVBAMUCWdjcF91c3IwMzEPMA0GA1UEKRMGc2VydmVy
MSwwKgYJKoZIhvcNAQkBFh1pcm9tYW5AY2FybWl0YXByb2R1Y3RzLmNvbS5lYzCC
ASIwDQYJKoZIhvcNAQEBBQADggEPADCCAQoCggEBALnZd4VXbrePzYw+06TK+OhO
rwMwLzmaMBUeCBV34T/lPhXS04JEzb5rsLOoadGgOcqnaNLVZpyAg/CkMg3yYpO+
9laCn0wvh6U0O2yeWw0aDs2CdxzzaVagVomK6Be9nsx82kNrLeahzEZBZ1VYFWks
RACVdRdSljZSJObD3P/coI7aayxAhPzHOPfgKAF8cMvTCDik/THzcpsPrTC4hU7o
N9vYry5trpEo+4ETsLCFwt/8dcKl6zJben13ep08mlmEFoAJD92MbFnYWJG6SPXe
eebjeWLguTq4UwJH2bIzE5q/x2yMmwyR34l8A5SKDVg8fgUtigeuXICtY09Spz8C
AwEAAaOCAW4wggFqMAkGA1UdEwQCMAAwLQYJYIZIAYb4QgENBCAWHkVhc3ktUlNB
IEdlbmVyYXRlZCBDZXJ0aWZpY2F0ZTAdBgNVHQ4EFgQUX2dxT55yaL1oJkZBAMPg
zTy5WJcwgewGA1UdIwSB5DCB4YAU2cZ0Ko322+V9oz/R0X21iTKWebGhgb2kgbow
gbcxCzAJBgNVBAYTAkVDMQ8wDQYDVQQIEwZHdWF5YXMxEjAQBgNVBAcTCUd1YXlh
cXVpbDEYMBYGA1UEChMPQ2FybWl0YVByb2R1Y3RzMREwDwYDVQQLEwhTaXN0ZW1h
czEXMBUGA1UEAxMOZ2VzcnZsaW51eGM3MTUxDzANBgNVBCkTBnNlcnZlcjEsMCoG
CSqGSIb3DQEJARYdaXJvbWFuQGNhcm1pdGFwcm9kdWN0cy5jb20uZWOCCQDtePJs
4zU3vDATBgNVHSUEDDAKBggrBgEFBQcDAjALBgNVHQ8EBAMCB4AwDQYJKoZIhvcN
AQELBQADggEBAIy89doefgPeO6OH+MVbCVovYP7Cn5diFpmlKov1ss9Ufpfn18Rb
CK/VhuPBa/9I+H4dlYyr2dbXa0gIowymcRkuCPl1eZTpJj6Ao1sTThOWi1F0eZzL
tZxx2SmNfYW9I/ZfHTYweE+yGATmmZbniRnuRvRFLuL2GncTzRnogW29+IbyJOA4
6Rt6kNaGhtgJvBTeim88YZQ6W5eicqPn+ffxrnerldRVAoI21FzZoG2NWyOEvvSQ
dHJ/EEdCaqhZld0MfXCHJOw7IyxtJ4JjA3lVPPSsMofqKznzFahPr2+uHlJrT5dl
iYAjAa01lRWBVddaFZ4OFuM3Hwm+ONofBYE=
-----END CERTIFICATE-----
